; Function Attrs: mustprogress uwtable
define noundef nonnull align 8 dereferenceable(8) ptr @_ZN5boost9unit_test15unit_test_log_tlsERKNS0_12lazy_ostreamE(ptr noundef nonnull readnone returned align 8 dereferenceable(8) %0, ptr noundef nonnull align 8 dereferenceable(9) %1) local_unnamed_addr #4 align 2 personality ptr @__gxx_personality_v0 {
  %3 = getelementptr inbounds nuw i8, ptr %1, i64 8
  %4 = load i8, ptr %3, align 8, !tbaa !8, !range !11, !noundef !12
  %5 = trunc nuw i8 %4 to i1
  br i1 %5, label %.loopexit, label %6

6:                                                ; preds = %2
  %7 = load atomic i8, ptr @_ZGVZN5boost9unit_test12_GLOBAL__N_110s_log_implEvE8the_inst acquire, align 8
  %8 = icmp eq i8 %7, 0
  br i1 %8, label %9, label %_ZN5boost9unit_test12_GLOBAL__N_110s_log_implEv.exit, !prof !3

9:                                                ; preds = %6
  %10 = tail call i32 @__cxa_guard_acquire(ptr nonnull @_ZGVZN5boost9unit_test12_GLOBAL__N_110s_log_implEvE8the_inst) #27
  %.not.i = icmp eq i32 %10, 0
  br i1 %.not.i, label %_ZN5boost9unit_test12_GLOBAL__N_110s_log_implEv.exit, label %11

11:                                               ; preds = %9
  invoke fastcc void @_ZN5boost9unit_test12_GLOBAL__N_118unit_test_log_implC2Ev()
          to label %12 unwind label %14

12:                                               ; preds = %11
  %13 = tail call i32 @__cxa_atexit(ptr nonnull @_ZN5boost9unit_test12_GLOBAL__N_118unit_test_log_implD2Ev, ptr nonnull @_ZZN5boost9unit_test12_GLOBAL__N_110s_log_implEvE8the_inst, ptr nonnull @__dso_handle) #27
  tail call void @__cxa_guard_release(ptr nonnull @_ZGVZN5boost9unit_test12_GLOBAL__N_110s_log_implEvE8the_inst) #27
  br label %_ZN5boost9unit_test12_GLOBAL__N_110s_log_implEv.exit

common.resume:                                    ; preds = %25, %14
  %common.resume.op = phi { ptr, i32 } [ %15, %14 ], [ %26, %25 ]
  tail call void @__cxa_guard_abort(ptr nonnull @_ZGVZN5boost9unit_test12_GLOBAL__N_110s_log_implEvE8the_inst) #27
  resume { ptr, i32 } %common.resume.op

14:                                               ; preds = %11
  %15 = landingpad { ptr, i32 }
          cleanup
  br label %common.resume

_ZN5boost9unit_test12_GLOBAL__N_110s_log_implEv.exit: ; preds = %6, %9, %12
  %.val.i = load ptr, ptr getelementptr inbounds nuw (i8, ptr @_ZZN5boost9unit_test12_GLOBAL__N_110s_log_implEvE8the_inst, i64 24), align 8, !tbaa !4
  %.val.i14 = load ptr, ptr getelementptr inbounds nuw (i8, ptr @_ZZN5boost9unit_test12_GLOBAL__N_110s_log_implEvE8the_inst, i64 32), align 8, !tbaa !4
  %16 = icmp ult ptr %.val.i, %.val.i14
  br i1 %16, label %.lr.ph, label %.loopexit

.lr.ph:                                           ; preds = %_ZN5boost9unit_test12_GLOBAL__N_110s_log_implEv.exit, %41
  %.sroa.017.018 = phi ptr [ %42, %41 ], [ %.val.i, %_ZN5boost9unit_test12_GLOBAL__N_110s_log_implEv.exit ]
  %17 = load ptr, ptr %.sroa.017.018, align 8, !tbaa !4
  %18 = load atomic i8, ptr @_ZGVZN5boost9unit_test12_GLOBAL__N_110s_log_implEvE8the_inst acquire, align 8
  %19 = icmp eq i8 %18, 0
  br i1 %19, label %20, label %_ZN5boost9unit_test12_GLOBAL__N_110s_log_implEv.exit16, !prof !3

20:                                               ; preds = %.lr.ph
  %21 = tail call i32 @__cxa_guard_acquire(ptr nonnull @_ZGVZN5boost9unit_test12_GLOBAL__N_110s_log_implEvE8the_inst) #27
  %.not.i15 = icmp eq i32 %21, 0
  br i1 %.not.i15, label %_ZN5boost9unit_test12_GLOBAL__N_110s_log_implEv.exit16, label %22

22:                                               ; preds = %20
  invoke fastcc void @_ZN5boost9unit_test12_GLOBAL__N_118unit_test_log_implC2Ev()
          to label %23 unwind label %25

23:                                               ; preds = %22
  %24 = tail call i32 @__cxa_atexit(ptr nonnull @_ZN5boost9unit_test12_GLOBAL__N_118unit_test_log_implD2Ev, ptr nonnull @_ZZN5boost9unit_test12_GLOBAL__N_110s_log_implEvE8the_inst, ptr nonnull @__dso_handle) #27
  tail call void @__cxa_guard_release(ptr nonnull @_ZGVZN5boost9unit_test12_GLOBAL__N_110s_log_implEvE8the_inst) #27
  br label %_ZN5boost9unit_test12_GLOBAL__N_110s_log_implEv.exit16

25:                                               ; preds = %22
  %26 = landingpad { ptr, i32 }
          cleanup
  br label %common.resume

_ZN5boost9unit_test12_GLOBAL__N_110s_log_implEv.exit16: ; preds = %.lr.ph, %20, %23
  %27 = load i32, ptr getelementptr inbounds nuw (i8, ptr @_ZZN5boost9unit_test12_GLOBAL__N_110s_log_implEvE8the_inst, i64 88), align 8, !tbaa !13
  %28 = getelementptr i8, ptr %17, i64 32
  %.val12 = load ptr, ptr %28, align 8, !tbaa !30
  %29 = load ptr, ptr %.val12, align 8, !tbaa !33
  %30 = getelementptr inbounds i8, ptr %29, i64 168
  %31 = load ptr, ptr %30, align 8
  %32 = tail call noundef i32 %31(ptr noundef nonnull align 8 dereferenceable(12) %.val12)
  %.not = icmp slt i32 %27, %32
  br i1 %.not, label %41, label %33

33:                                               ; preds = %_ZN5boost9unit_test12_GLOBAL__N_110s_log_implEv.exit16
  %34 = tail call fastcc noundef zeroext i1 @_ZN5boost9unit_test15log_entry_startERNS0_12_GLOBAL__N_130unit_test_log_data_helper_implE(ptr noundef nonnull align 8 dereferenceable(49) %17)
  br i1 %34, label %35, label %41

35:                                               ; preds = %33
  %36 = load ptr, ptr %28, align 8, !tbaa !30
  %37 = getelementptr i8, ptr %17, i64 8
  %.val13 = load ptr, ptr %37, align 8, !tbaa !35
  %38 = load ptr, ptr %36, align 8, !tbaa !33
  %39 = getelementptr inbounds i8, ptr %38, i64 120
  %40 = load ptr, ptr %39, align 8
  tail call void %40(ptr noundef nonnull align 8 dereferenceable(12) %36, ptr noundef nonnull align 8 dereferenceable(8) %.val13, ptr noundef nonnull align 8 dereferenceable(9) %1)
  br label %41

41:                                               ; preds = %33, %35, %_ZN5boost9unit_test12_GLOBAL__N_110s_log_implEv.exit16
  %42 = getelementptr inbounds nuw i8, ptr %.sroa.017.018, i64 8
  %43 = icmp ult ptr %42, %.val.i14
  br i1 %43, label %.lr.ph, label %.loopexit, !llvm.loop !39

.loopexit:                                        ; preds = %41, %_ZN5boost9unit_test12_GLOBAL__N_110s_log_implEv.exit, %2
  ret ptr %0
}